target datalayout = "e-m:e-p270:32:32-p271:32:32-p272:64:64-i64:64-i128:128-f80:128-n8:16:32:64-S128"
target triple = "x86_64-pc-linux-gnu"

%class.G1CardSetAllocator = type { %class.G1MonotonicArena, %class.FreeListAllocator }
%class.G1MonotonicArena = type { %class.FreeListConfig, ptr, ptr, ptr, i32, i64, ptr, i32, i32 }
%class.FreeListConfig = type { ptr, i64 }
%class.FreeListAllocator = type { ptr, [120 x i8], i64, [120 x i8], %class.LockFreeStack, [120 x i8], i8, [127 x i8], i32, [2 x %"class.FreeListAllocator::PendingList"] }
%class.LockFreeStack = type { ptr }
%"class.FreeListAllocator::PendingList" = type { ptr, ptr, i64 }
%class.G1CardSetMemoryManager = type { ptr, ptr, ptr }

@_ZTV22G1CardSetMemoryManager = hidden unnamed_addr constant { [4 x ptr] } { [4 x ptr] [ptr null, ptr null, ptr @_ZN22G1CardSetMemoryManagerD1Ev, ptr @_ZN22G1CardSetMemoryManagerD0Ev] }, align 8
@_ZN18G1CardSetAllocatorD1Ev = hidden unnamed_addr alias void (ptr), ptr @_ZN18G1CardSetAllocatorD2Ev

; Function Attrs: mustprogress nounwind uwtable
define linkonce_odr hidden noundef i32 @_ZN22G1CardSetConfiguration20num_mem_object_typesEv() #1 comdat align 2 {
  ret i32 4
}

; Function Attrs: mustprogress nounwind uwtable
define hidden noundef i32 @_ZNK22G1CardSetMemoryManager20num_mem_object_typesEv(ptr noundef nonnull align 8 dereferenceable(24) %0) #1 align 2 {
  %2 = alloca ptr, align 8
  store ptr %0, ptr %2, align 8
  %3 = call noundef i32 @_ZN22G1CardSetConfiguration20num_mem_object_typesEv()
  ret i32 %3
}

; Function Attrs: mustprogress nounwind uwtable
define hidden void @_ZN22G1CardSetMemoryManagerD2Ev(ptr noundef nonnull align 8 dereferenceable(24) %0) unnamed_addr #1 align 2 {
  %2 = alloca ptr, align 8
  %3 = alloca i32, align 4
  store ptr %0, ptr %2, align 8
  %4 = load ptr, ptr %2, align 8
  store ptr getelementptr inbounds inrange(-16, 16) ({ [4 x ptr] }, ptr @_ZTV22G1CardSetMemoryManager, i32 0, i32 0, i32 2), ptr %4, align 8
  store i32 0, ptr %3, align 4
  br label %5

5:                                                ; preds = %15, %1
  %6 = load i32, ptr %3, align 4
  %7 = call noundef i32 @_ZNK22G1CardSetMemoryManager20num_mem_object_typesEv(ptr noundef nonnull align 8 dereferenceable(24) %4)
  %8 = icmp ult i32 %6, %7
  br i1 %8, label %9, label %18

9:                                                ; preds = %5
  %10 = getelementptr inbounds %class.G1CardSetMemoryManager, ptr %4, i32 0, i32 2
  %11 = load ptr, ptr %10, align 8
  %12 = load i32, ptr %3, align 4
  %13 = zext i32 %12 to i64
  %14 = getelementptr inbounds %class.G1CardSetAllocator, ptr %11, i64 %13
  call void @_ZN18G1CardSetAllocatorD1Ev(ptr noundef nonnull align 8 dereferenceable(640) %14) #4
  br label %15

15:                                               ; preds = %9
  %16 = load i32, ptr %3, align 4
  %17 = add i32 %16, 1
  store i32 %17, ptr %3, align 4
  br label %5, !llvm.loop !8

18:                                               ; preds = %5
  %19 = getelementptr inbounds %class.G1CardSetMemoryManager, ptr %4, i32 0, i32 2
  %20 = load ptr, ptr %19, align 8
  call void @_Z8FreeHeapPv(ptr noundef %20)
  ret void
}