; Function Attrs: mustprogress nounwind uwtable
define hidden void @_ZN22G1CardSetMemoryManagerD2Ev(ptr nocapture noundef nonnull align 8 dereferenceable(24) %0) unnamed_addr #0 align 2 {
  store ptr getelementptr inbounds inrange(-16, 16) (i8, ptr @_ZTV22G1CardSetMemoryManager, i64 16), ptr %0, align 8
  %2 = getelementptr inbounds i8, ptr %0, i64 16
  br label %3

3:                                                ; preds = %1, %3
  %indvars.iv = phi i64 [ 0, %1 ], [ %indvars.iv.next, %3 ]
  %4 = load ptr, ptr %2, align 8
  %5 = getelementptr inbounds %class.G1CardSetAllocator, ptr %4, i64 %indvars.iv
  %6 = getelementptr inbounds i8, ptr %5, i64 72
  tail call void @_ZN17FreeListAllocator5resetEv(ptr noundef nonnull align 8 dereferenceable(568) %6) #4
  tail call void @_ZN16G1MonotonicArena8drop_allEv(ptr noundef nonnull align 8 dereferenceable(72) %5) #4
  tail call void @_ZN17FreeListAllocatorD1Ev(ptr noundef nonnull align 8 dereferenceable(568) %6) #4
  tail call void @_ZN16G1MonotonicArenaD1Ev(ptr noundef nonnull align 8 dereferenceable(72) %5) #4
  %indvars.iv.next = add nuw nsw i64 %indvars.iv, 1
  %exitcond.not = icmp eq i64 %indvars.iv.next, 4
  br i1 %exitcond.not, label %7, label %3, !llvm.loop !8

7:                                                ; preds = %3
  %8 = load ptr, ptr %2, align 8
  tail call void @_Z8FreeHeapPv(ptr noundef %8) #4
  ret void
}